{
   our-failure-to-setup-freeres-structure
   Memcheck:Free
   fun:free
   fun:__libc_freeres
   fun:_vgnU_freeres
}

{
 leaked-TLS-chunk-x86-exit-path-fails-to-clean-up
 Memcheck:Leak
 fun:calloc
 fun:_dl_allocate_tls
}

{
   mac-dyld-oddity
   Memcheck:Cond
   fun:_ZN4dyld5_mainEPK12macho_headermiPPKcS5_S5_
   fun:_ZN13dyldbootstrap5startEPK12macho_headeriPPKcl
   fun:_dyld_start
   obj:*
}

{
   mac-dlopen-weirdness
   Memcheck:Cond
   fun:_ZNK16ImageLoaderMachO9getRPathsERKN11ImageLoader11LinkContextERSt6vectorIPKcSaIS6_EE
   fun:_ZN11ImageLoader22recursiveLoadLibrariesERKNS_11LinkContextEbRKNS_10RPathChainE
   fun:_ZN11ImageLoader4linkERKNS_11LinkContextEbbRKNS_10RPathChainE
   fun:_ZN4dyld4linkEP11ImageLoaderbRKNS0_10RPathChainE
   fun:dlopen
   fun:dlopen
   fun:_ZN16rust_crate_cache3libC1EP8rust_domPKc
   fun:_ZN16rust_crate_cache7get_libEmPKc
   fun:_ZL11fetch_c_symP9rust_taskPK10rust_cratemmPKcS5_
}

{
   mac-dlopen-weirdness-2
   Memcheck:Value4
   fun:_ZNK16ImageLoaderMachO9getRPathsERKN11ImageLoader11LinkContextERSt6vectorIPKcSaIS6_EE
   fun:_ZN11ImageLoader22recursiveLoadLibrariesERKNS_11LinkContextEbRKNS_10RPathChainE
   fun:_ZN11ImageLoader4linkERKNS_11LinkContextEbbRKNS_10RPathChainE
   fun:_ZN4dyld4linkEP11ImageLoaderbRKNS0_10RPathChainE
   fun:dlopen
   fun:dlopen
   fun:_ZN16rust_crate_cache3libC1EP8rust_domPKc
   fun:_ZN16rust_crate_cache7get_libEmPKc
   fun:_ZL11fetch_c_symP9rust_taskPK10rust_cratemmPKcS5_
}

{
   mac-dlopen-weirdness-3
   Memcheck:Value4
   fun:strcpy
   fun:_ZN11ImageLoader22recursiveLoadLibrariesERKNS_11LinkContextEbRKNS_10RPathChainE
   fun:_ZN11ImageLoader4linkERKNS_11LinkContextEbbRKNS_10RPathChainE
   fun:_ZN4dyld4linkEP11ImageLoaderbRKNS0_10RPathChainE
   fun:dlopen
   fun:dlopen
   fun:_ZN16rust_crate_cache3libC1EP8rust_domPKc
   fun:_ZN16rust_crate_cache7get_libEmPKc
   fun:_ZL11fetch_c_symP9rust_taskPK10rust_cratemmPKcS5_
}

{
   mac-dlopen-weirdness-4
   Memcheck:Value4
   obj:*
   fun:_ZNK16ImageLoaderMachO9getRPathsERKN11ImageLoader11LinkContextERSt6vectorIPKcSaIS6_EE
   fun:_ZN11ImageLoader22recursiveLoadLibrariesERKNS_11LinkContextEbRKNS_10RPathChainE
   fun:_ZN11ImageLoader4linkERKNS_11LinkContextEbbRKNS_10RPathChainE
   fun:_ZN4dyld4linkEP11ImageLoaderbRKNS0_10RPathChainE
   fun:dlopen
   fun:dlopen
   fun:_ZN16rust_crate_cache3libC1EP8rust_domPKc
   fun:_ZN16rust_crate_cache7get_libEmPKc
   fun:_ZL11fetch_c_symP9rust_taskPK10rust_cratemmPKcS5_
}

{
   mac-dlopen-weirdness-5
   Memcheck:Cond
   fun:memcpy
   fun:strdup
   fun:_ZNK16ImageLoaderMachO9getRPathsERKN11ImageLoader11LinkContextERSt6vectorIPKcSaIS6_EE
   fun:_ZN11ImageLoader22recursiveLoadLibrariesERKNS_11LinkContextEbRKNS_10RPathChainE
   fun:_ZN11ImageLoader4linkERKNS_11LinkContextEbbRKNS_10RPathChainE
   fun:_ZN4dyld4linkEP11ImageLoaderbRKNS0_10RPathChainE
   fun:dlopen
   fun:dlopen
   fun:_ZN16rust_crate_cache3libC1EP8rust_domPKc
   fun:_ZN16rust_crate_cache7get_libEmPKc
   fun:_ZL11fetch_c_symP9rust_taskPK10rust_cratemmPKcS5_
}

{
   mac-dlopen-weirdness-6
   Memcheck:Value4
   fun:memcpy
   fun:strdup
   fun:_ZNK16ImageLoaderMachO9getRPathsERKN11ImageLoader11LinkContextERSt6vectorIPKcSaIS6_EE
   fun:_ZN11ImageLoader22recursiveLoadLibrariesERKNS_11LinkContextEbRKNS_10RPathChainE
   fun:_ZN11ImageLoader4linkERKNS_11LinkContextEbbRKNS_10RPathChainE
   fun:_ZN4dyld4linkEP11ImageLoaderbRKNS0_10RPathChainE
   fun:dlopen
   fun:dlopen
   fun:_ZN16rust_crate_cache3libC1EP8rust_domPKc
   fun:_ZN16rust_crate_cache7get_libEmPKc
   fun:_ZL11fetch_c_symP9rust_taskPK10rust_cratemmPKcS5_
}

